target datalayout = "e-m:e-p270:32:32-p271:32:32-p272:64:64-i64:64-i128:128-f80:128-n8:16:32:64-S128"
target triple = "x86_64-pc-linux-gnu"

%struct.Qureg = type { i32, i32, i32, i64, i64, i32, i32, %struct.ComplexArray, %struct.ComplexArray, %struct.ComplexArray, ptr, ptr, ptr, ptr, ptr, ptr }
%struct.ComplexArray = type { ptr, ptr }
%struct.QASMLogger = type { ptr, i32, i32, i32 }

@.str.1 = private unnamed_addr constant [2 x i8] c"q\00", align 1
@__func__.addStringToQASM = private unnamed_addr constant [16 x i8] c"addStringToQASM\00", align 1
@.str.3 = private unnamed_addr constant [3 x i8] c"%s\00", align 1
@.str.36 = private unnamed_addr constant [8 x i8] c"%s %s;\0A\00", align 1
@.str.37 = private unnamed_addr constant [6 x i8] c"reset\00", align 1
@__func__.qasm_recordInitZero = private unnamed_addr constant [20 x i8] c"qasm_recordInitZero\00", align 1

; Function Attrs: nounwind uwtable
define void @addStringToQASM(ptr noundef byval(%struct.Qureg) align 8 %0, ptr noundef %1, i32 noundef %2) #0 {
  %4 = alloca ptr, align 8
  %5 = alloca i32, align 4
  %6 = alloca ptr, align 8
  %7 = alloca i32, align 4
  %8 = alloca i32, align 4
  %9 = alloca i32, align 4
  %10 = alloca ptr, align 8
  %11 = alloca i32, align 4
  store ptr %1, ptr %4, align 8, !tbaa !24
  store i32 %2, ptr %5, align 4, !tbaa !25
  call void @llvm.lifetime.start.p0(i64 8, ptr %6) #7
  %12 = getelementptr inbounds nuw %struct.Qureg, ptr %0, i32 0, i32 15
  %13 = load ptr, ptr %12, align 8, !tbaa !10
  %14 = getelementptr inbounds nuw %struct.QASMLogger, ptr %13, i32 0, i32 0
  %15 = load ptr, ptr %14, align 8, !tbaa !21
  store ptr %15, ptr %6, align 8, !tbaa !24
  call void @llvm.lifetime.start.p0(i64 4, ptr %7) #7
  %16 = getelementptr inbounds nuw %struct.Qureg, ptr %0, i32 0, i32 15
  %17 = load ptr, ptr %16, align 8, !tbaa !10
  %18 = getelementptr inbounds nuw %struct.QASMLogger, ptr %17, i32 0, i32 1
  %19 = load i32, ptr %18, align 8, !tbaa !20
  store i32 %19, ptr %7, align 4, !tbaa !25
  call void @llvm.lifetime.start.p0(i64 4, ptr %8) #7
  %20 = getelementptr inbounds nuw %struct.Qureg, ptr %0, i32 0, i32 15
  %21 = load ptr, ptr %20, align 8, !tbaa !10
  %22 = getelementptr inbounds nuw %struct.QASMLogger, ptr %21, i32 0, i32 2
  %23 = load i32, ptr %22, align 4, !tbaa !23
  store i32 %23, ptr %8, align 4, !tbaa !25
  %24 = load i32, ptr %5, align 4, !tbaa !25
  %25 = load i32, ptr %8, align 4, !tbaa !25
  %26 = add nsw i32 %24, %25
  %27 = load i32, ptr %7, align 4, !tbaa !25
  %28 = icmp sgt i32 %26, %27
  br i1 %28, label %29, label %57

29:                                               ; preds = %3
  call void @llvm.lifetime.start.p0(i64 4, ptr %9) #7
  %30 = load i32, ptr %7, align 4, !tbaa !25
  %31 = mul nsw i32 2, %30
  store i32 %31, ptr %9, align 4, !tbaa !25
  %32 = load i32, ptr %5, align 4, !tbaa !25
  %33 = load i32, ptr %8, align 4, !tbaa !25
  %34 = add nsw i32 %32, %33
  %35 = load i32, ptr %9, align 4, !tbaa !25
  %36 = icmp sgt i32 %34, %35
  br i1 %36, label %37, label %38

37:                                               ; preds = %29
  call void @raiseQASMBufferOverflow(ptr noundef @__func__.addStringToQASM)
  br label %38

38:                                               ; preds = %37, %29
  call void @llvm.lifetime.start.p0(i64 8, ptr %10) #7
  %39 = load i32, ptr %9, align 4, !tbaa !25
  %40 = sext i32 %39 to i64
  %41 = mul i64 %40, 1
  %42 = call noalias ptr @malloc(i64 noundef %41) #8
  store ptr %42, ptr %10, align 8, !tbaa !24
  %43 = load ptr, ptr %10, align 8, !tbaa !24
  %44 = load ptr, ptr %6, align 8, !tbaa !24
  %45 = call i32 (ptr, ptr, ...) @sprintf(ptr noundef %43, ptr noundef @.str.3, ptr noundef %44) #7
  %46 = load ptr, ptr %6, align 8, !tbaa !24
  call void @free(ptr noundef %46) #7
  %47 = load i32, ptr %9, align 4, !tbaa !25
  %48 = getelementptr inbounds nuw %struct.Qureg, ptr %0, i32 0, i32 15
  %49 = load ptr, ptr %48, align 8, !tbaa !10
  %50 = getelementptr inbounds nuw %struct.QASMLogger, ptr %49, i32 0, i32 1
  store i32 %47, ptr %50, align 8, !tbaa !20
  %51 = load ptr, ptr %10, align 8, !tbaa !24
  %52 = getelementptr inbounds nuw %struct.Qureg, ptr %0, i32 0, i32 15
  %53 = load ptr, ptr %52, align 8, !tbaa !10
  %54 = getelementptr inbounds nuw %struct.QASMLogger, ptr %53, i32 0, i32 0
  store ptr %51, ptr %54, align 8, !tbaa !21
  %55 = load i32, ptr %9, align 4, !tbaa !25
  store i32 %55, ptr %7, align 4, !tbaa !25
  %56 = load ptr, ptr %10, align 8, !tbaa !24
  store ptr %56, ptr %6, align 8, !tbaa !24
  call void @llvm.lifetime.end.p0(i64 8, ptr %10) #7
  call void @llvm.lifetime.end.p0(i64 4, ptr %9) #7
  br label %57

57:                                               ; preds = %38, %3
  call void @llvm.lifetime.start.p0(i64 4, ptr %11) #7
  %58 = load ptr, ptr %6, align 8, !tbaa !24
  %59 = load i32, ptr %8, align 4, !tbaa !25
  %60 = sext i32 %59 to i64
  %61 = getelementptr inbounds i8, ptr %58, i64 %60
  %62 = load i32, ptr %7, align 4, !tbaa !25
  %63 = load i32, ptr %8, align 4, !tbaa !25
  %64 = sub nsw i32 %62, %63
  %65 = sext i32 %64 to i64
  %66 = load ptr, ptr %4, align 8, !tbaa !24
  %67 = call i32 (ptr, i64, ptr, ...) @snprintf(ptr noundef %61, i64 noundef %65, ptr noundef @.str.3, ptr noundef %66) #7
  store i32 %67, ptr %11, align 4, !tbaa !25
  %68 = load i32, ptr %11, align 4, !tbaa !25
  %69 = getelementptr inbounds nuw %struct.Qureg, ptr %0, i32 0, i32 15
  %70 = load ptr, ptr %69, align 8, !tbaa !10
  %71 = getelementptr inbounds nuw %struct.QASMLogger, ptr %70, i32 0, i32 2
  %72 = load i32, ptr %71, align 4, !tbaa !23
  %73 = add nsw i32 %72, %68
  store i32 %73, ptr %71, align 4, !tbaa !23
  call void @llvm.lifetime.end.p0(i64 4, ptr %11) #7
  call void @llvm.lifetime.end.p0(i64 4, ptr %8) #7
  call void @llvm.lifetime.end.p0(i64 4, ptr %7) #7
  call void @llvm.lifetime.end.p0(i64 8, ptr %6) #7
  ret void
}

; Function Attrs: nounwind uwtable
define void @qasm_recordInitZero(ptr noundef byval(%struct.Qureg) align 8 %0) #0 {
  %2 = alloca [1025 x i8], align 16
  %3 = alloca i32, align 4
  %4 = getelementptr inbounds nuw %struct.Qureg, ptr %0, i32 0, i32 15
  %5 = load ptr, ptr %4, align 8, !tbaa !10
  %6 = getelementptr inbounds nuw %struct.QASMLogger, ptr %5, i32 0, i32 3
  %7 = load i32, ptr %6, align 8, !tbaa !17
  %8 = icmp ne i32 %7, 0
  br i1 %8, label %10, label %9

9:                                                ; preds = %1
  br label %19

10:                                               ; preds = %1
  call void @llvm.lifetime.start.p0(i64 1025, ptr %2) #7
  call void @llvm.lifetime.start.p0(i64 4, ptr %3) #7
  %11 = getelementptr inbounds [1025 x i8], ptr %2, i64 0, i64 0
  %12 = call i32 (ptr, i64, ptr, ...) @snprintf(ptr noundef %11, i64 noundef 1024, ptr noundef @.str.36, ptr noundef @.str.37, ptr noundef @.str.1) #7
  store i32 %12, ptr %3, align 4, !tbaa !25
  %13 = load i32, ptr %3, align 4, !tbaa !25
  %14 = icmp sge i32 %13, 1024
  br i1 %14, label %15, label %16

15:                                               ; preds = %10
  call void @raiseQASMBufferOverflow(ptr noundef @__func__.qasm_recordInitZero)
  br label %16

16:                                               ; preds = %15, %10
  %17 = getelementptr inbounds [1025 x i8], ptr %2, i64 0, i64 0
  %18 = load i32, ptr %3, align 4, !tbaa !25
  call void @addStringToQASM(ptr noundef byval(%struct.Qureg) align 8 %0, ptr noundef %17, i32 noundef %18)
  call void @llvm.lifetime.end.p0(i64 4, ptr %3) #7
  call void @llvm.lifetime.end.p0(i64 1025, ptr %2) #7
  br label %19

19:                                               ; preds = %16, %9
  ret void
}